ccopy_reg
_reconstructor
p1
(cCameraNetwork.utils
DataObj
p2
c__builtin__
object
p3
NtRp4
(dp5
S'color_mode'
p6
Vraw
p7
sS'gain_db'
p8
L0L
sS'exposure_us'
p9
F164.20000000000002
sS'altitude'
p10
I331
sS'name_time'
p11
cdatetime
datetime
p12
(S'\x07\xe0\n\x13\x0b \x00\x00\x07\xb6'
tRp13
sS'gain_boost'
p14
I00
sS'longitude'
p15
F34.994365999999999
sS'latitude'
p16
F32.776802000000004
sS'camera_info'
p17
(dp18
S'sensor_id'
p19
I39
sS'max_height'
p20
I1200
sS'blue_gain'
p21
I01
sS'sensor_name'
p22
S'UI155xLE-C'
p23
sS'green_gain'
p24
I01
sS'id'
p25
I1
sS'pixel_size'
p26
F2.7999999999999998
sS'manufacturer'
p27
S'IDS GmbH'
p28
sS'global_shutter'
p29
I00
sg6
S'Bayer'
p30
sS'hw_version'
p31
S'V1.0'
p32
sS'master_gain'
p33
I01
sS'max_width'
p34
I1600
sS'serial_num'
p35
S'4102820375'
p36
sS'red_gain'
p37
I01
sS'manufacture_date'
p38
S'16.02.2015'
p39
sS'type'
p40
S'USB uEye LE'
p41
ssS'capture_time'
p42
g12
(S'\x07\xe0\n\x13\x0b \x02\t\\s'
tRp43
sb.